; Function Attrs: mustprogress nounwind uwtable
define hidden void @_ZN11StringDedup5Table17num_dead_callbackEm(i64 noundef %0) #0 align 2 {
  %2 = load ptr, ptr @StringDedup_lock, align 8
  %.not.i.i = icmp eq ptr %2, null
  br i1 %.not.i.i, label %_ZN13MonitorLockerC2EP7MonitorN5Mutex18SafepointCheckFlagE.exit, label %3

3:                                                ; preds = %1
  tail call void @_ZN5Mutex28lock_without_safepoint_checkEv(ptr noundef nonnull align 8 dereferenceable(104) %2) #13
  br label %_ZN13MonitorLockerC2EP7MonitorN5Mutex18SafepointCheckFlagE.exit

_ZN13MonitorLockerC2EP7MonitorN5Mutex18SafepointCheckFlagE.exit: ; preds = %1, %3
  %4 = load volatile i32, ptr @_ZN11StringDedup5Table11_dead_stateE, align 4
  switch i32 %4, label %_ZN13MonitorLockerD2Ev.exit [
    i32 0, label %5
    i32 1, label %6
    i32 2, label %7
  ]

5:                                                ; preds = %_ZN13MonitorLockerC2EP7MonitorN5Mutex18SafepointCheckFlagE.exit
  store volatile i64 %0, ptr @_ZN11StringDedup5Table11_dead_countE, align 8
  br label %_ZN13MonitorLockerD2Ev.exit

6:                                                ; preds = %_ZN13MonitorLockerC2EP7MonitorN5Mutex18SafepointCheckFlagE.exit
  store volatile i64 %0, ptr @_ZN11StringDedup5Table11_dead_countE, align 8
  tail call void asm sideeffect "", "~{memory},~{dirflag},~{fpsr},~{flags}"() #13, !srcloc !13
  store volatile i32 0, ptr @_ZN11StringDedup5Table11_dead_stateE, align 4
  br label %_ZN13MonitorLockerD2Ev.exit

7:                                                ; preds = %_ZN13MonitorLockerC2EP7MonitorN5Mutex18SafepointCheckFlagE.exit
  tail call void asm sideeffect "", "~{memory},~{dirflag},~{fpsr},~{flags}"() #13, !srcloc !13
  store volatile i32 1, ptr @_ZN11StringDedup5Table11_dead_stateE, align 4
  br label %_ZN13MonitorLockerD2Ev.exit

_ZN13MonitorLockerD2Ev.exit:                      ; preds = %7, %6, %5, %_ZN13MonitorLockerC2EP7MonitorN5Mutex18SafepointCheckFlagE.exit
  tail call void @_ZN7Monitor10notify_allEv(ptr noundef nonnull align 8 dereferenceable(104) %2) #13
  tail call void @_ZN5Mutex6unlockEv(ptr noundef nonnull align 8 dereferenceable(104) %2) #13
  ret void
}